(lp0
(lp1
(I0
I-80
tp2
a(I0
I-80
tp3
a(I-50
I80
tp4
a(I-20
I65
tp5
a(I0
I70
tp6
a(I20
I65
tp7
a(I50
I80
tp8
a(I0
I-80
tp9
aa(lp10
(I-10
I-20
tp11
a(I-10
I-20
tp12
a(I10
I-20
tp13
a(I20
I25
tp14
a(I-20
I25
tp15
a(I-10
I-20
tp16
aa(lp17
(I0
I50
tp18
a(I0
I50
tp19
a(I0
I100
tp20
aa(lp21
(I-21
I36
tp22
a(I-27
I55
tp23
a(I-17
I55
tp24
a(I-21
I36
tp25
aa(lp26
(I22
I37
tp27
a(I22
I37
tp28
a(I28
I56
tp29
a(I16
I56
tp30
a(I22
I37
tp31
aa.