(lp0
(lp1
(I-81
I1
tp2
a(I80
I0
tp3
a(I80
I-114
tp4
a(I46
I-114
tp5
a(I46
I-5
tp6
a(I-48
I-5
tp7
a(I-48
I-114
tp8
a(I-81
I-114
tp9
a(I-81
I0
tp10
aa(lp11
(I-81
I-114
tp12
a(I0
I-159
tp13
a(I79
I-115
tp14
aa(lp15
(I-49
I-113
tp16
a(I1
I-139
tp17
a(I47
I-113
tp18
aa.