(lp0
(lp1
(I0
I-120
tp2
a(I-65
I80
tp3
a(I0
I40
tp4
a(I65
I80
tp5
a(I0
I-120
tp6
aa(lp7
(I0
I-38
tp8
a(I-14
I-21
tp9
a(I-17
I0
tp10
a(I-14
I12
tp11
a(I-7
I19
tp12
a(I0
I22
tp13
a(I8
I18
tp14
a(I15
I12
tp15
a(I17
I0
tp16
a(I14
I-21
tp17
a(I0
I-38
tp18
aa(lp19
(I-23
I54
tp20
a(I-12
I75
tp21
a(I11
I75
tp22
a(I23
I54
tp23
aa(lp24
(I-11
I76
tp25
a(I-14
I84
tp26
a(I-19
I98
tp27
a(I-14
I117
tp28
a(I-3
I137
tp29
a(I11
I128
tp30
a(I17
I102
tp31
a(I18
I88
tp32
a(I15
I77
tp33
a(I11
I75
tp34
aa(lp35
a.